; Function Attrs: nounwind uwtable
define dso_local zeroext i1 @PinLocalBuffer(ptr noundef %0, i1 noundef zeroext %1) local_unnamed_addr #0 {
  %3 = getelementptr i8, ptr %0, i64 20
  %.val = load i32, ptr %3, align 4
  %4 = sub i32 -2, %.val
  %5 = getelementptr inbounds nuw i8, ptr %0, i64 24
  %6 = load volatile i32, ptr %5, align 4
  %7 = load ptr, ptr @LocalRefCount, align 8
  %8 = sext i32 %4 to i64
  %9 = getelementptr inbounds i32, ptr %7, i64 %8
  %10 = load i32, ptr %9, align 4
  %11 = icmp eq i32 %10, 0
  br i1 %11, label %12, label %19

12:                                               ; preds = %2
  %13 = load i32, ptr @NLocalPinnedBuffers, align 4
  %14 = add i32 %13, 1
  store i32 %14, ptr @NLocalPinnedBuffers, align 4
  %15 = and i32 %6, 3932160
  %16 = icmp samesign ult i32 %15, 1310720
  %or.cond = select i1 %1, i1 %16, i1 false
  br i1 %or.cond, label %17, label %19

17:                                               ; preds = %12
  %18 = add i32 %6, 262144
  store volatile i32 %18, ptr %5, align 4
  %.pre = load i32, ptr %9, align 4
  br label %19

19:                                               ; preds = %12, %17, %2
  %20 = phi i32 [ %.pre, %17 ], [ 0, %12 ], [ %10, %2 ]
  %.0 = phi i32 [ %18, %17 ], [ %6, %12 ], [ %6, %2 ]
  %21 = add i32 %20, 1
  store i32 %21, ptr %9, align 4
  %22 = load ptr, ptr @CurrentResourceOwner, align 8
  %.val12 = load i32, ptr %3, align 4
  %23 = add i32 %.val12, 1
  %24 = sext i32 %23 to i64
  tail call void @ResourceOwnerRemember(ptr noundef %22, i64 noundef %24, ptr noundef nonnull @buffer_pin_resowner_desc) #14
  %25 = and i32 %.0, 16777216
  %26 = icmp ne i32 %25, 0
  ret i1 %26
}